target datalayout = "e-m:e-p270:32:32-p271:32:32-p272:64:64-i64:64-i128:128-f80:128-n8:16:32:64-S128"
target triple = "x86_64-pc-linux-gnu"

%struct.ImVec2 = type { float, float }
%struct.ImRect = type { %struct.ImVec2, %struct.ImVec2 }
%struct.ImVector = type { i32, i32, ptr }
%struct.ImVector.0 = type { i32, i32, ptr }
%struct.ImVector.1 = type { i32, i32, ptr }
%struct.ImGuiStorage = type { %struct.ImVector.2 }
%struct.ImVector.2 = type { i32, i32, ptr }
%struct.ImVector.5 = type { i32, i32, ptr }
%struct.ImVector.7 = type { i32, i32, ptr }
%struct.ImVec4 = type { float, float, float, float }
%struct.ImVector.8 = type { i32, i32, ptr }
%struct.ImGuiContext = type { i8, i8, %struct.ImGuiIO, %struct.ImGuiPlatformIO, %struct.ImGuiStyle, ptr, float, float, float, float, %struct.ImDrawListSharedData, double, i32, i32, i32, i8, i8, i8, i8, i8, ptr, [16 x i8], %struct.ImVector.11, %struct.ImVector.11, i32, i32, %struct.ImVector.0, %struct.ImVector.0, %struct.ImVector.0, %struct.ImVector.12, %struct.ImGuiStorage, i32, %struct.ImVec2, i32, ptr, ptr, ptr, ptr, ptr, ptr, %struct.ImVec2, i32, i32, float, %struct.ImVec2, %struct.ImVec2, i32, i32, i32, i32, i32, float, float, i8, i8, i8, i32, i32, float, i8, i8, i8, i8, i8, i8, i8, i8, %struct.ImVec2, ptr, i32, i32, i8, i8, ptr, i32, float, double, double, double, %struct.ImBitArray, [154 x %struct.ImGuiKeyOwnerData], %struct.ImGuiKeyRoutingTable, i32, i8, i32, i32, i32, i32, %struct.ImGuiNextItemData, %struct.ImGuiLastItemData, %struct.ImGuiNextWindowData, i8, i32, %struct.ImVector.14, %struct.ImVector.15, %struct.ImVector.16, %struct.ImVector.17, %struct.ImVector.18, %struct.ImVector.19, %struct.ImVector.20, %struct.ImVector.20, %struct.ImVector.21, %struct.ImVector.22, ptr, i32, i32, i32, i32, i32, i32, i32, %struct.ImVector.17, i32, float, i32, i32, i32, i64, i8, i8, i8, i8, i8, i8, i8, %struct.ImGuiNavItemData, i8, i8, i8, i32, i32, i32, i32, i32, i32, %struct.ImRect, %struct.ImRect, i32, i32, i32, %struct.ImGuiNavItemData, %struct.ImGuiNavItemData, %struct.ImGuiNavItemData, %struct.ImGuiNavItemData, i32, i32, i32, i32, i8, i8, i32, i32, ptr, ptr, ptr, float, float, i8, i32, %struct.ImVec2, %struct.ImVec2, float, i8, i8, i8, i32, i32, i32, [4 x i8], %struct.ImGuiPayload, %struct.ImRect, %struct.ImRect, i32, i32, float, i32, i32, i32, i32, %struct.ImVector.23, [16 x i8], i32, %struct.ImVector.24, ptr, i32, i32, %struct.ImVector.25, %struct.ImPool, %struct.ImVector.1, %struct.ImVector.8, ptr, %struct.ImPool.27, %struct.ImVector.29, %struct.ImVector.30, %struct.ImGuiBoxSelectState, ptr, i32, %struct.ImVector.31, %struct.ImPool.32, i32, i32, float, float, i32, i32, i32, float, %struct.ImVec2, %struct.ImGuiInputTextState, %struct.ImGuiInputTextDeactivatedState, %struct.ImFont, i32, %struct.ImGuiDataTypeStorage, i32, i32, i32, i32, i32, float, float, i32, %struct.ImVec4, %struct.ImGuiComboPreviewData, %struct.ImRect, i8, i16, float, float, float, i8, i8, float, float, float, i16, i16, i16, ptr, %struct.ImVector.34, %struct.ImVector, %struct.ImGuiTypingSelectState, %struct.ImGuiPlatformImeData, %struct.ImGuiPlatformImeData, i8, float, %struct.ImGuiTextBuffer, %struct.ImVector.36, %struct.ImChunkStream, %struct.ImChunkStream.37, %struct.ImVector.38, i32, [10 x ptr], i8, i32, ptr, %struct.ImGuiTextBuffer, ptr, ptr, float, i8, i32, i32, i32, ptr, ptr, %struct.ImVec2, i8, i32, %struct.ImGuiErrorRecoveryState, ptr, i32, i32, %struct.ImGuiTextBuffer, %struct.ImGuiTextIndex, i32, i32, i8, i8, i8, i32, i8, i8, i8, i32, float, %struct.ImVec4, %struct.ImGuiMetricsConfig, %struct.ImGuiIDStackTool, %struct.ImGuiDebugAllocInfo, [60 x float], i32, i32, float, i32, i32, i32, %struct.ImVector.34, [64 x i8] }
%struct.ImGuiIO = type { i32, i32, %struct.ImVec2, float, float, ptr, ptr, ptr, ptr, float, i8, ptr, %struct.ImVec2, i8, i8, i8, i8, i8, i8, i8, i8, i8, i8, float, float, float, float, float, float, i8, i8, i8, i8, i8, i8, i8, i8, i8, i8, ptr, ptr, ptr, ptr, ptr, i8, i8, i8, i8, i8, i8, i8, float, i32, i32, i32, i32, %struct.ImVec2, ptr, %struct.ImVec2, [5 x i8], float, float, i32, i8, i8, i8, i8, i32, [154 x %struct.ImGuiKeyData], i8, %struct.ImVec2, [5 x %struct.ImVec2], [5 x double], [5 x i8], [5 x i8], [5 x i16], [5 x i16], [5 x i8], [5 x i8], [5 x i8], i8, i8, [5 x float], [5 x float], [5 x float], float, i8, i8, i8, i8, i16, %struct.ImVector.5 }
%struct.ImGuiKeyData = type { i8, float, float, float }
%struct.ImGuiPlatformIO = type <{ ptr, ptr, ptr, ptr, ptr, ptr, ptr, i16, [6 x i8] }>
%struct.ImGuiStyle = type { float, float, %struct.ImVec2, float, float, %struct.ImVec2, %struct.ImVec2, i32, float, float, float, float, %struct.ImVec2, float, float, %struct.ImVec2, %struct.ImVec2, %struct.ImVec2, %struct.ImVec2, float, float, float, float, float, float, float, float, float, float, float, float, float, %struct.ImVec2, i32, %struct.ImVec2, %struct.ImVec2, float, %struct.ImVec2, %struct.ImVec2, %struct.ImVec2, %struct.ImVec2, float, i8, i8, i8, float, float, [56 x %struct.ImVec4], float, float, float, i32, i32 }
%struct.ImDrawListSharedData = type { %struct.ImVec2, ptr, float, float, float, float, %struct.ImVec4, i32, %struct.ImVector.7, [48 x %struct.ImVec2], float, [64 x i8], ptr }
%struct.ImVector.11 = type { i32, i32, ptr }
%struct.ImVector.12 = type { i32, i32, ptr }
%struct.ImBitArray = type { [5 x i32] }
%struct.ImGuiKeyOwnerData = type <{ i32, i32, i8, i8, [2 x i8] }>
%struct.ImGuiKeyRoutingTable = type { [154 x i16], %struct.ImVector.13, %struct.ImVector.13 }
%struct.ImVector.13 = type { i32, i32, ptr }
%struct.ImGuiNextItemData = type <{ i32, i32, i32, [4 x i8], i64, float, i32, i32, i8, i8, %struct.ImGuiDataTypeStorage, [2 x i8], i32, [4 x i8] }>
%struct.ImGuiLastItemData = type { i32, i32, i32, %struct.ImRect, %struct.ImRect, %struct.ImRect, %struct.ImRect, i32 }
%struct.ImGuiNextWindowData = type { i32, i32, i32, i32, %struct.ImVec2, %struct.ImVec2, %struct.ImVec2, %struct.ImVec2, %struct.ImVec2, i32, i8, %struct.ImRect, ptr, ptr, float, %struct.ImVec2, i32 }
%struct.ImVector.14 = type { i32, i32, ptr }
%struct.ImVector.15 = type { i32, i32, ptr }
%struct.ImVector.16 = type { i32, i32, ptr }
%struct.ImVector.18 = type { i32, i32, ptr }
%struct.ImVector.19 = type { i32, i32, ptr }
%struct.ImVector.20 = type { i32, i32, ptr }
%struct.ImVector.21 = type { i32, i32, ptr }
%struct.ImVector.22 = type { i32, i32, ptr }
%struct.ImVector.17 = type { i32, i32, ptr }
%struct.ImGuiNavItemData = type { ptr, i32, i32, %struct.ImRect, i32, float, float, float, i64 }
%struct.ImGuiPayload = type <{ ptr, i32, i32, i32, i32, [33 x i8], i8, i8, [5 x i8] }>
%struct.ImVector.23 = type { i32, i32, ptr }
%struct.ImVector.24 = type { i32, i32, ptr }
%struct.ImVector.25 = type { i32, i32, ptr }
%struct.ImPool = type { %struct.ImVector.26, %struct.ImGuiStorage, i32, i32 }
%struct.ImVector.26 = type { i32, i32, ptr }
%struct.ImPool.27 = type { %struct.ImVector.28, %struct.ImGuiStorage, i32, i32 }
%struct.ImVector.28 = type { i32, i32, ptr }
%struct.ImVector.29 = type { i32, i32, ptr }
%struct.ImVector.30 = type { i32, i32, ptr }
%struct.ImGuiBoxSelectState = type <{ i32, i8, i8, i8, i8, i8, i16, i8, %struct.ImVec2, %struct.ImVec2, %struct.ImVec2, [4 x i8], ptr, i8, [3 x i8], %struct.ImRect, %struct.ImRect, %struct.ImRect, [4 x i8] }>
%struct.ImVector.31 = type { i32, i32, ptr }
%struct.ImPool.32 = type { %struct.ImVector.33, %struct.ImGuiStorage, i32, i32 }
%struct.ImVector.33 = type { i32, i32, ptr }
%struct.ImGuiInputTextState = type <{ ptr, ptr, i32, i32, %struct.ImVector.34, %struct.ImVector.34, %struct.ImVector.34, i32, %struct.ImVec2, float, i8, i8, i8, i8, i32, i8, [3 x i8], i32, i32, [4 x i8] }>
%struct.ImGuiInputTextDeactivatedState = type { i32, %struct.ImVector.34 }
%struct.ImFont = type <{ %struct.ImVector.1, float, float, %struct.ImVector.5, %struct.ImVector.35, ptr, ptr, ptr, i16, i16, i16, i16, float, float, i8, [3 x i8], float, float, float, i32, [2 x i8], [2 x i8] }>
%struct.ImVector.35 = type { i32, i32, ptr }
%struct.ImGuiDataTypeStorage = type { [8 x i8] }
%struct.ImGuiComboPreviewData = type { %struct.ImRect, %struct.ImVec2, %struct.ImVec2, %struct.ImVec2, float, i32 }
%struct.ImGuiTypingSelectState = type <{ %struct.ImGuiTypingSelectRequest, [64 x i8], i32, i32, float, i8, [3 x i8] }>
%struct.ImGuiTypingSelectRequest = type { i32, i32, ptr, i8, i8, i8 }
%struct.ImGuiPlatformImeData = type { i8, %struct.ImVec2, float }
%struct.ImVector.36 = type { i32, i32, ptr }
%struct.ImChunkStream = type { %struct.ImVector.34 }
%struct.ImChunkStream.37 = type { %struct.ImVector.34 }
%struct.ImVector.38 = type { i32, i32, ptr }
%struct.ImGuiErrorRecoveryState = type { i16, i16, i16, i16, i16, i16, i16, i16, i16, i16, i16 }
%struct.ImGuiTextBuffer = type { %struct.ImVector.34 }
%struct.ImGuiTextIndex = type <{ %struct.ImVector.18, i32, [4 x i8] }>
%struct.ImGuiMetricsConfig = type { i8, i8, i8, i8, i8, i8, i8, i8, i8, i32, i32, i32, i32 }
%struct.ImGuiIDStackTool = type { i32, i32, i32, %struct.ImVector.39, i8, float }
%struct.ImVector.39 = type { i32, i32, ptr }
%struct.ImGuiDebugAllocInfo = type { i32, i32, i16, [6 x %struct.ImGuiDebugAllocEntry] }
%struct.ImGuiDebugAllocEntry = type { i32, i16, i16 }
%struct.ImVector.34 = type { i32, i32, ptr }

@GImGui = external global ptr, align 8

; Function Attrs: inlinehint mustprogress nounwind uwtable
define internal noundef float @_ZL5ImMinIfET_S0_S0_(float noundef %0, float noundef %1) #2 {
  %3 = alloca float, align 4
  %4 = alloca float, align 4
  store float %0, ptr %3, align 4, !tbaa !66
  store float %1, ptr %4, align 4, !tbaa !66
  %5 = load float, ptr %3, align 4, !tbaa !66
  %6 = load float, ptr %4, align 4, !tbaa !66
  %7 = fcmp olt float %5, %6
  br i1 %7, label %8, label %10

8:                                                ; preds = %2
  %9 = load float, ptr %3, align 4, !tbaa !66
  br label %12

10:                                               ; preds = %2
  %11 = load float, ptr %4, align 4, !tbaa !66
  br label %12

12:                                               ; preds = %10, %8
  %13 = phi float [ %9, %8 ], [ %11, %10 ]
  ret float %13
}

; Function Attrs: mustprogress nounwind uwtable
define internal noundef float @_ZN5ImGuiL21TabBarCalcMaxTabWidthEv() #4 {
  %1 = alloca ptr, align 8
  call void @llvm.lifetime.start.p0(i64 8, ptr %1) #17
  %2 = load ptr, ptr @GImGui, align 8, !tbaa !61
  store ptr %2, ptr %1, align 8, !tbaa !61
  %3 = load ptr, ptr %1, align 8, !tbaa !61
  %4 = getelementptr inbounds nuw %struct.ImGuiContext, ptr %3, i32 0, i32 6
  %5 = load float, ptr %4, align 8, !tbaa !185
  %6 = fmul float %5, 2.000000e+01
  call void @llvm.lifetime.end.p0(i64 8, ptr %1) #17
  ret float %6
}

; Function Attrs: mustprogress nounwind uwtable
define linkonce_odr dso_local void @_ZN6ImVec2C2Eff(ptr noundef nonnull align 4 dereferenceable(8) %0, float noundef %1, float noundef %2) unnamed_addr #4 comdat align 2 {
  %4 = alloca ptr, align 8
  %5 = alloca float, align 4
  %6 = alloca float, align 4
  store ptr %0, ptr %4, align 8, !tbaa !174
  store float %1, ptr %5, align 4, !tbaa !66
  store float %2, ptr %6, align 4, !tbaa !66
  %7 = load ptr, ptr %4, align 8
  %8 = getelementptr inbounds nuw %struct.ImVec2, ptr %7, i32 0, i32 0
  %9 = load float, ptr %5, align 4, !tbaa !66
  store float %9, ptr %8, align 4, !tbaa !165
  %10 = getelementptr inbounds nuw %struct.ImVec2, ptr %7, i32 0, i32 1
  %11 = load float, ptr %6, align 4, !tbaa !66
  store float %11, ptr %10, align 4, !tbaa !164
  ret void
}

; Function Attrs: mustprogress uwtable
define dso_local <2 x float> @_ZN5ImGui15TabItemCalcSizeEPKcb(ptr noundef %0, i1 noundef zeroext %1) #0 {
  %3 = alloca %struct.ImVec2, align 4
  %4 = alloca ptr, align 8
  %5 = alloca i8, align 1
  %6 = alloca ptr, align 8
  %7 = alloca %struct.ImVec2, align 4
  %8 = alloca %struct.ImVec2, align 4
  store ptr %0, ptr %4, align 8, !tbaa !4
  %9 = zext i1 %1 to i8
  store i8 %9, ptr %5, align 1, !tbaa !67
  call void @llvm.lifetime.start.p0(i64 8, ptr %6) #17
  %10 = load ptr, ptr @GImGui, align 8, !tbaa !61
  store ptr %10, ptr %6, align 8, !tbaa !61
  call void @llvm.lifetime.start.p0(i64 8, ptr %7) #17
  %11 = load ptr, ptr %4, align 8, !tbaa !4
  %12 = call <2 x float> @_ZN5ImGui12CalcTextSizeEPKcS1_bf(ptr noundef %11, ptr noundef null, i1 noundef zeroext true, float noundef -1.000000e+00)
  store <2 x float> %12, ptr %7, align 4
  call void @llvm.lifetime.start.p0(i64 8, ptr %8) #17
  %13 = getelementptr inbounds nuw %struct.ImVec2, ptr %7, i32 0, i32 0
  %14 = load float, ptr %13, align 4, !tbaa !165
  %15 = load ptr, ptr %6, align 8, !tbaa !61
  %16 = getelementptr inbounds nuw %struct.ImGuiContext, ptr %15, i32 0, i32 4
  %17 = getelementptr inbounds nuw %struct.ImGuiStyle, ptr %16, i32 0, i32 12
  %18 = getelementptr inbounds nuw %struct.ImVec2, ptr %17, i32 0, i32 0
  %19 = load float, ptr %18, align 4, !tbaa !344
  %20 = fadd float %14, %19
  %21 = getelementptr inbounds nuw %struct.ImVec2, ptr %7, i32 0, i32 1
  %22 = load float, ptr %21, align 4, !tbaa !164
  %23 = load ptr, ptr %6, align 8, !tbaa !61
  %24 = getelementptr inbounds nuw %struct.ImGuiContext, ptr %23, i32 0, i32 4
  %25 = getelementptr inbounds nuw %struct.ImGuiStyle, ptr %24, i32 0, i32 12
  %26 = getelementptr inbounds nuw %struct.ImVec2, ptr %25, i32 0, i32 1
  %27 = load float, ptr %26, align 4, !tbaa !228
  %28 = fmul float %27, 2.000000e+00
  %29 = fadd float %22, %28
  call void @_ZN6ImVec2C2Eff(ptr noundef nonnull align 4 dereferenceable(8) %8, float noundef %20, float noundef %29)
  %30 = load i8, ptr %5, align 1, !tbaa !67, !range !59, !noundef !60
  %31 = trunc i8 %30 to i1
  br i1 %31, label %32, label %51

32:                                               ; preds = %2
  %33 = load ptr, ptr %6, align 8, !tbaa !61
  %34 = getelementptr inbounds nuw %struct.ImGuiContext, ptr %33, i32 0, i32 4
  %35 = getelementptr inbounds nuw %struct.ImGuiStyle, ptr %34, i32 0, i32 12
  %36 = getelementptr inbounds nuw %struct.ImVec2, ptr %35, i32 0, i32 0
  %37 = load float, ptr %36, align 4, !tbaa !344
  %38 = load ptr, ptr %6, align 8, !tbaa !61
  %39 = getelementptr inbounds nuw %struct.ImGuiContext, ptr %38, i32 0, i32 4
  %40 = getelementptr inbounds nuw %struct.ImGuiStyle, ptr %39, i32 0, i32 16
  %41 = getelementptr inbounds nuw %struct.ImVec2, ptr %40, i32 0, i32 0
  %42 = load float, ptr %41, align 4, !tbaa !402
  %43 = load ptr, ptr %6, align 8, !tbaa !61
  %44 = getelementptr inbounds nuw %struct.ImGuiContext, ptr %43, i32 0, i32 6
  %45 = load float, ptr %44, align 8, !tbaa !185
  %46 = fadd float %42, %45
  %47 = fadd float %37, %46
  %48 = getelementptr inbounds nuw %struct.ImVec2, ptr %8, i32 0, i32 0
  %49 = load float, ptr %48, align 4, !tbaa !165
  %50 = fadd float %49, %47
  store float %50, ptr %48, align 4, !tbaa !165
  br label %61

51:                                               ; preds = %2
  %52 = load ptr, ptr %6, align 8, !tbaa !61
  %53 = getelementptr inbounds nuw %struct.ImGuiContext, ptr %52, i32 0, i32 4
  %54 = getelementptr inbounds nuw %struct.ImGuiStyle, ptr %53, i32 0, i32 12
  %55 = getelementptr inbounds nuw %struct.ImVec2, ptr %54, i32 0, i32 0
  %56 = load float, ptr %55, align 4, !tbaa !344
  %57 = fadd float %56, 1.000000e+00
  %58 = getelementptr inbounds nuw %struct.ImVec2, ptr %8, i32 0, i32 0
  %59 = load float, ptr %58, align 4, !tbaa !165
  %60 = fadd float %59, %57
  store float %60, ptr %58, align 4, !tbaa !165
  br label %61

61:                                               ; preds = %51, %32
  %62 = getelementptr inbounds nuw %struct.ImVec2, ptr %8, i32 0, i32 0
  %63 = load float, ptr %62, align 4, !tbaa !165
  %64 = call noundef float @_ZN5ImGuiL21TabBarCalcMaxTabWidthEv()
  %65 = call noundef float @_ZL5ImMinIfET_S0_S0_(float noundef %63, float noundef %64)
  %66 = getelementptr inbounds nuw %struct.ImVec2, ptr %8, i32 0, i32 1
  %67 = load float, ptr %66, align 4, !tbaa !164
  call void @_ZN6ImVec2C2Eff(ptr noundef nonnull align 4 dereferenceable(8) %3, float noundef %65, float noundef %67)
  call void @llvm.lifetime.end.p0(i64 8, ptr %8) #17
  call void @llvm.lifetime.end.p0(i64 8, ptr %7) #17
  call void @llvm.lifetime.end.p0(i64 8, ptr %6) #17
  %68 = load <2 x float>, ptr %3, align 4
  ret <2 x float> %68
}