; Function Attrs: mustprogress uwtable
define dso_local <2 x float> @_ZN5ImGui15TabItemCalcSizeEPKcb(ptr noundef %0, i1 noundef zeroext %1) local_unnamed_addr #0 {
  %3 = load ptr, ptr @GImGui, align 8, !tbaa !4
  %4 = tail call <2 x float> @_ZN5ImGui12CalcTextSizeEPKcS1_bf(ptr noundef %0, ptr noundef null, i1 noundef zeroext true, float noundef -1.000000e+00)
  %5 = getelementptr inbounds nuw i8, ptr %3, i64 3076
  %6 = load float, ptr %5, align 4, !tbaa !312
  %7 = getelementptr inbounds nuw i8, ptr %3, i64 3080
  %8 = load float, ptr %7, align 4, !tbaa !211
  br i1 %1, label %9, label %15

9:                                                ; preds = %2
  %10 = getelementptr inbounds nuw i8, ptr %3, i64 3100
  %11 = load float, ptr %10, align 4, !tbaa !359
  %12 = getelementptr inbounds nuw i8, ptr %3, i64 4184
  %13 = load float, ptr %12, align 8, !tbaa !172
  %14 = fadd float %11, %13
  br label %15

15:                                               ; preds = %2, %9
  %.sink = phi float [ %14, %9 ], [ 1.000000e+00, %2 ]
  %16 = fadd float %6, %.sink
  %.sroa.0.0.vec.extract = extractelement <2 x float> %4, i64 0
  %17 = fadd float %.sroa.0.0.vec.extract, %6
  %storemerge = fadd float %17, %16
  %.sroa.0.4.vec.extract = extractelement <2 x float> %4, i64 1
  %18 = fmul float %8, 2.000000e+00
  %19 = fadd float %.sroa.0.4.vec.extract, %18
  %20 = load ptr, ptr @GImGui, align 8, !tbaa !4
  %21 = getelementptr inbounds nuw i8, ptr %20, i64 4184
  %22 = load float, ptr %21, align 8, !tbaa !172
  %23 = fmul float %22, 2.000000e+01
  %24 = fcmp olt float %storemerge, %23
  %25 = select i1 %24, float %storemerge, float %23
  %.sroa.08.0.vec.insert = insertelement <2 x float> poison, float %25, i64 0
  %.sroa.08.4.vec.insert = insertelement <2 x float> %.sroa.08.0.vec.insert, float %19, i64 1
  ret <2 x float> %.sroa.08.4.vec.insert
}